Certificate:
    Data:
        Version: 3 (0x2)
        Serial Number: 4096 (0x1000)
        Signature Algorithm: sha256WithRSAEncryption
        Issuer: CN=Test CA
        Validity
            Not Before: Oct  9 11:21:03 2025 GMT
            Not After : Oct  9 11:21:03 2026 GMT
        Subject: CN=localhost
        Subject Public Key Info:
            Public Key Algorithm: rsaEncryption
                Public-Key: (2048 bit)
                Modulus:
                    00:a4:bf:f1:27:81:35:c5:a0:e6:8b:28:3e:96:0d:
                    16:cc:28:6a:20:58:ff:99:b7:50:05:05:d6:93:78:
                    82:42:81:db:e3:a5:fa:92:7e:11:7b:4d:ab:93:af:
                    22:14:d4:2b:b2:bd:1b:59:4b:f3:49:b4:ff:71:43:
                    b7:d2:fb:fe:fa:b8:2d:3e:46:1c:1a:95:c0:e3:58:
                    77:5e:d8:be:7c:99:e7:20:0c:b2:08:16:12:99:28:
                    ad:c4:e8:0e:b4:13:c1:f8:b1:55:89:ca:dd:fa:eb:
                    82:0b:1e:77:82:0e:e9:0e:6a:0a:00:14:40:a0:9a:
                    1b:77:be:ba:48:4a:c0:a0:6d:a6:ec:04:47:b3:69:
                    a8:a1:de:c0:dd:67:f0:ab:cf:a3:b5:e8:f0:a2:5a:
                    9f:54:17:37:f1:9d:7f:0d:ac:57:ec:13:88:5a:1d:
                    e5:5f:32:38:20:79:6d:92:e6:8c:8d:90:62:04:05:
                    81:31:42:fb:1e:42:bb:e1:e5:2f:b4:89:f9:5f:c9:
                    b4:ee:23:0e:44:7c:df:91:4c:94:6c:6d:9d:1b:20:
                    37:b3:75:64:d2:85:72:be:1d:09:d3:b6:4a:3a:24:
                    79:8d:e1:15:b4:a1:0c:a8:b3:49:ea:ec:0e:63:22:
                    74:e4:4a:2f:55:ea:60:16:56:4a:fd:17:e0:e6:af:
                    c5:ff
                Exponent: 65537 (0x10001)
        X509v3 extensions:
            X509v3 Basic Constraints: critical
                CA:FALSE
            X509v3 Key Usage: critical
                Digital Signature, Key Encipherment
            X509v3 Extended Key Usage: 
                TLS Web Server Authentication
            Authority Information Access: 
                OCSP - URI:http://127.0.0.1:8888/ocsp
            X509v3 Subject Alternative Name: 
                IP Address:127.0.0.1, DNS:localhost
            X509v3 Subject Key Identifier: 
                01:91:1E:97:10:EC:14:6B:D2:55:43:66:A0:C1:DC:85:44:7B:21:DF
            X509v3 Authority Key Identifier: 
                D8:1A:84:3C:E3:8C:43:00:46:F0:77:4E:4C:B2:80:22:A1:2B:77:13
    Signature Algorithm: sha256WithRSAEncryption
    Signature Value:
        8c:43:c4:df:2d:84:f4:eb:ad:3e:6f:f0:95:94:91:08:d3:35:
        7f:3f:62:97:4f:38:75:45:3e:83:20:0c:94:39:ce:4c:0b:bd:
        2b:3c:2e:17:16:8c:0e:b5:12:07:c6:30:f7:a8:59:e0:bb:68:
        96:51:83:45:79:92:53:49:80:4b:e7:9f:06:64:5c:20:ef:14:
        ff:c2:a7:61:dd:9f:3f:e7:cf:4e:44:ed:b7:1e:86:9c:f5:32:
        d3:b6:1a:37:52:09:e1:21:36:af:3e:a9:61:f6:81:3c:f7:bd:
        17:f2:33:31:9f:8c:da:65:65:a8:73:52:fc:db:67:6c:b5:40:
        33:40:03:44:75:73:8d:f7:ba:cc:44:b4:d0:3e:3e:0b:9e:f1:
        a5:ec:5e:84:4f:df:3a:95:bc:75:05:33:86:f6:7a:81:d7:ec:
        8c:08:0d:e8:26:76:ae:58:0b:b9:57:77:c8:36:da:01:06:05:
        40:1f:f1:10:e5:ef:cd:91:ac:5e:64:d0:2f:f8:7a:7f:aa:49:
        f1:22:01:f8:5c:b2:b1:d5:19:99:30:38:c8:e3:5e:66:ea:ef:
        09:bf:16:da:b1:d4:5c:2d:2f:2c:71:d5:8e:1e:12:b2:db:d5:
        44:af:c0:1d:5c:8f:90:85:06:00:85:84:6b:43:7a:c0:e3:44:
        9d:e8:96:d7
-----BEGIN CERTIFICATE-----
MIIDbTCCAlWgAwIBAgICEAAwDQYJKoZIhvcNAQELBQAwEjEQMA4GA1UEAwwHVGVz
dCBDQTAeFw0yNTEwMDkxMTIxMDNaFw0yNjEwMDkxMTIxMDNaMBQxEjAQBgNVBAMM
CWxvY2FsaG9zdDCCASIwDQYJKoZIhvcNAQEBBQADggEPADCCAQoCggEBAKS/8SeB
NcWg5osoPpYNFswoaiBY/5m3UAUF1pN4gkKB2+Ol+pJ+EXtNq5OvIhTUK7K9G1lL
80m0/3FDt9L7/vq4LT5GHBqVwONYd17YvnyZ5yAMsggWEpkorcToDrQTwfixVYnK
3frrggsed4IO6Q5qCgAUQKCaG3e+ukhKwKBtpuwER7NpqKHewN1n8KvPo7Xo8KJa
n1QXN/Gdfw2sV+wTiFod5V8yOCB5bZLmjI2QYgQFgTFC+x5Cu+HlL7SJ+V/JtO4j
DkR835FMlGxtnRsgN7N1ZNKFcr4dCdO2SjokeY3hFbShDKizSersDmMidORKL1Xq
YBZWSv0X4Oavxf8CAwEAAaOByjCBxzAMBgNVHRMBAf8EAjAAMA4GA1UdDwEB/wQE
AwIFoDATBgNVHSUEDDAKBggrBgEFBQcDATA2BggrBgEFBQcBAQQqMCgwJgYIKwYB
BQUHMAGGGmh0dHA6Ly8xMjcuMC4wLjE6ODg4OC9vY3NwMBoGA1UdEQQTMBGHBH8A
AAGCCWxvY2FsaG9zdDAdBgNVHQ4EFgQUAZEelxDsFGvSVUNmoMHchUR7Id8wHwYD
VR0jBBgwFoAU2BqEPOOMQwBG8HdOTLKAIqErdxMwDQYJKoZIhvcNAQELBQADggEB
AIxDxN8thPTrrT5v8JWUkQjTNX8/YpdPOHVFPoMgDJQ5zkwLvSs8LhcWjA61EgfG
MPeoWeC7aJZRg0V5klNJgEvnnwZkXCDvFP/Cp2Hdnz/nz05E7bcehpz1MtO2GjdS
CeEhNq8+qWH2gTz3vRfyMzGfjNplZahzUvzbZ2y1QDNAA0R1c433usxEtNA+Pgue
8aXsXoRP3zqVvHUFM4b2eoHX7IwIDegmdq5YC7lXd8g22gEGBUAf8RDl782RrF5k
0C/4en+qSfEiAfhcsrHVGZkwOMjjXmbq7wm/Ftqx1FwtLyxx1Y4eErLb1USvwB1c
j5CFBgCFhGtDesDjRJ3oltc=
-----END CERTIFICATE-----
