Certificate:
    Data:
        Version: 3 (0x2)
        Serial Number: 4096 (0x1000)
        Signature Algorithm: sha256WithRSAEncryption
        Issuer: CN=Test CA
        Validity
            Not Before: Oct  6 19:39:34 2025 GMT
            Not After : Oct  6 19:39:34 2026 GMT
        Subject: CN=localhost
        Subject Public Key Info:
            Public Key Algorithm: rsaEncryption
                Public-Key: (2048 bit)
                Modulus:
                    00:e6:2a:f4:dc:48:cd:f3:70:12:3f:3a:cf:d5:cf:
                    c4:8f:18:45:0c:fc:d1:8f:f2:8d:a2:e7:2f:75:f4:
                    92:1d:b5:c7:38:02:e1:9a:d0:6d:88:37:de:38:b9:
                    d8:af:dd:95:11:04:16:b3:53:25:da:21:4d:07:5c:
                    62:60:f2:af:ff:59:41:2e:82:c3:a2:5e:8d:b9:d4:
                    fc:76:16:b9:e5:26:42:c4:a8:ad:3a:b5:ed:22:13:
                    f8:8a:66:51:bf:e0:5a:e8:b7:14:b2:d5:af:04:d0:
                    f3:52:85:0c:ed:09:26:36:78:20:e0:29:99:7a:5e:
                    82:5d:0e:02:5d:5b:c5:bd:fa:4a:cb:24:d8:24:34:
                    35:1a:c4:5c:68:5e:55:33:6d:f1:6c:15:fa:be:9c:
                    66:66:57:e5:12:38:05:1d:8b:65:ba:39:ab:49:fb:
                    40:80:db:aa:4e:9e:47:97:f9:91:bb:a5:f5:aa:f4:
                    fb:87:4e:5c:84:06:67:5d:44:37:56:78:7f:f2:3d:
                    a2:28:72:dc:0b:95:4f:50:11:6c:10:9f:8b:40:a0:
                    69:f1:8f:fa:d9:56:64:1d:55:19:a1:af:88:83:30:
                    48:ae:46:fe:e9:a5:45:fe:04:10:75:a2:e5:b7:7e:
                    7d:ce:0d:5a:ce:6d:80:05:e8:f1:39:aa:58:30:54:
                    a8:93
                Exponent: 65537 (0x10001)
        X509v3 extensions:
            X509v3 Basic Constraints: critical
                CA:FALSE
            X509v3 Key Usage: critical
                Digital Signature, Key Encipherment
            X509v3 Extended Key Usage: 
                TLS Web Server Authentication
            Authority Information Access: 
                OCSP - URI:http://127.0.0.1:8888/ocsp
            X509v3 Subject Alternative Name: 
                IP Address:127.0.0.1, DNS:localhost
            X509v3 Subject Key Identifier: 
                D1:DB:D8:9F:C8:04:56:DB:5D:A0:EF:39:36:8B:2B:D1:D6:50:48:7C
            X509v3 Authority Key Identifier: 
                90:A7:BA:B8:58:C6:3F:A0:F3:D4:57:F1:4E:C4:7F:9F:E1:57:75:0C
    Signature Algorithm: sha256WithRSAEncryption
    Signature Value:
        86:69:9d:a0:47:94:0d:b7:be:bf:31:d2:75:fb:85:76:b6:b1:
        8e:94:df:e3:74:40:c7:04:67:c4:e3:dd:0e:20:f1:ce:51:61:
        2e:f2:0f:50:c4:1b:44:b5:2d:f4:b7:3c:6e:94:34:c8:d4:9e:
        10:e3:37:b2:02:ac:05:29:c0:25:cb:6b:af:ea:d9:79:14:c2:
        c5:39:8e:55:89:99:a5:4f:f7:e3:bd:51:24:54:83:76:50:39:
        20:53:fc:a4:fb:eb:3a:a6:36:30:8e:3f:50:69:ea:cf:0e:e8:
        74:ee:db:01:90:16:6d:4c:53:3e:71:1c:c7:51:a4:34:8e:e0:
        9e:75:91:e1:e3:3c:d9:f4:14:43:cb:b6:59:37:d8:47:d6:0d:
        8c:a5:f7:d6:1c:c9:7a:39:69:02:8f:81:f9:c5:a7:d5:13:95:
        d1:20:7e:80:be:b7:76:17:62:27:7c:75:9b:f7:09:38:f8:0b:
        2d:10:cc:d8:ce:92:cc:7e:65:2d:68:16:3a:01:6e:b8:20:39:
        98:fb:d3:ff:f3:29:8d:35:61:a9:92:21:ee:e0:5f:5f:47:91:
        cc:97:3f:ac:2e:f2:68:43:94:87:a5:17:42:cb:43:4a:87:b2:
        a2:ed:ee:72:a7:9b:be:98:2a:0e:ab:0b:63:dd:29:05:c5:5d:
        71:19:95:33
-----BEGIN CERTIFICATE-----
MIIDbTCCAlWgAwIBAgICEAAwDQYJKoZIhvcNAQELBQAwEjEQMA4GA1UEAwwHVGVz
dCBDQTAeFw0yNTEwMDYxOTM5MzRaFw0yNjEwMDYxOTM5MzRaMBQxEjAQBgNVBAMM
CWxvY2FsaG9zdDCCASIwDQYJKoZIhvcNAQEBBQADggEPADCCAQoCggEBAOYq9NxI
zfNwEj86z9XPxI8YRQz80Y/yjaLnL3X0kh21xzgC4ZrQbYg33ji52K/dlREEFrNT
JdohTQdcYmDyr/9ZQS6Cw6JejbnU/HYWueUmQsSorTq17SIT+IpmUb/gWui3FLLV
rwTQ81KFDO0JJjZ4IOApmXpegl0OAl1bxb36Sssk2CQ0NRrEXGheVTNt8WwV+r6c
ZmZX5RI4BR2LZbo5q0n7QIDbqk6eR5f5kbul9ar0+4dOXIQGZ11EN1Z4f/I9oihy
3AuVT1ARbBCfi0CgafGP+tlWZB1VGaGviIMwSK5G/umlRf4EEHWi5bd+fc4NWs5t
gAXo8TmqWDBUqJMCAwEAAaOByjCBxzAMBgNVHRMBAf8EAjAAMA4GA1UdDwEB/wQE
AwIFoDATBgNVHSUEDDAKBggrBgEFBQcDATA2BggrBgEFBQcBAQQqMCgwJgYIKwYB
BQUHMAGGGmh0dHA6Ly8xMjcuMC4wLjE6ODg4OC9vY3NwMBoGA1UdEQQTMBGHBH8A
AAGCCWxvY2FsaG9zdDAdBgNVHQ4EFgQU0dvYn8gEVttdoO85Nosr0dZQSHwwHwYD
VR0jBBgwFoAUkKe6uFjGP6Dz1FfxTsR/n+FXdQwwDQYJKoZIhvcNAQELBQADggEB
AIZpnaBHlA23vr8x0nX7hXa2sY6U3+N0QMcEZ8Tj3Q4g8c5RYS7yD1DEG0S1LfS3
PG6UNMjUnhDjN7ICrAUpwCXLa6/q2XkUwsU5jlWJmaVP9+O9USRUg3ZQOSBT/KT7
6zqmNjCOP1Bp6s8O6HTu2wGQFm1MUz5xHMdRpDSO4J51keHjPNn0FEPLtlk32EfW
DYyl99YcyXo5aQKPgfnFp9UTldEgfoC+t3YXYid8dZv3CTj4Cy0QzNjOksx+ZS1o
FjoBbrggOZj70//zKY01YamSIe7gX19HkcyXP6wu8mhDlIelF0LLQ0qHsqLt7nKn
m76YKg6rC2PdKQXFXXEZlTM=
-----END CERTIFICATE-----
